EXPORTS
    _ZN13MulticonjuntoIbE5anadeERKb @1
    _ZN13MulticonjuntoIbE7eliminaERKb @2
    _ZN13MulticonjuntoIbEC1Ev @3
    _ZN13MulticonjuntoIbEC2Ev @4
    _ZN13MulticonjuntoIcE5anadeERKc @5
    _ZN13MulticonjuntoIcE7eliminaERKc @6
    _ZN13MulticonjuntoIcEC1Ev @7
    _ZN13MulticonjuntoIcEC2Ev @8
    _ZN13MulticonjuntoIdE5anadeERKd @9
    _ZN13MulticonjuntoIdE7eliminaERKd @10
    _ZN13MulticonjuntoIdEC1Ev @11
    _ZN13MulticonjuntoIdEC2Ev @12
    _ZN13MulticonjuntoIiE5anadeERKi @13
    _ZN13MulticonjuntoIiE7eliminaERKi @14
    _ZN13MulticonjuntoIiEC1Ev @15
    _ZN13MulticonjuntoIiEC2Ev @16
    _ZN13MulticonjuntoIlE5anadeERKl @17
    _ZN13MulticonjuntoIlE7eliminaERKl @18
    _ZN13MulticonjuntoIlEC1Ev @19
    _ZN13MulticonjuntoIlEC2Ev @20
    _ZN13MulticonjuntoIsE5anadeERKs @21
    _ZN13MulticonjuntoIsE7eliminaERKs @22
    _ZN13MulticonjuntoIsEC1Ev @23
    _ZN13MulticonjuntoIsEC2Ev @24
    _ZNK13MulticonjuntoIbE12cardinalidadEv @25
    _ZNK13MulticonjuntoIbE7esVacioEv @26
    _ZNK13MulticonjuntoIbE7mostrarEv @27
    _ZNK13MulticonjuntoIbE9perteneceERKb @28
    _ZNK13MulticonjuntoIcE12cardinalidadEv @29
    _ZNK13MulticonjuntoIcE7esVacioEv @30
    _ZNK13MulticonjuntoIcE7mostrarEv @31
    _ZNK13MulticonjuntoIcE9perteneceERKc @32
    _ZNK13MulticonjuntoIdE12cardinalidadEv @33
    _ZNK13MulticonjuntoIdE7esVacioEv @34
    _ZNK13MulticonjuntoIdE7mostrarEv @35
    _ZNK13MulticonjuntoIdE9perteneceERKd @36
    _ZNK13MulticonjuntoIiE12cardinalidadEv @37
    _ZNK13MulticonjuntoIiE7esVacioEv @38
    _ZNK13MulticonjuntoIiE7mostrarEv @39
    _ZNK13MulticonjuntoIiE9perteneceERKi @40
    _ZNK13MulticonjuntoIlE12cardinalidadEv @41
    _ZNK13MulticonjuntoIlE7esVacioEv @42
    _ZNK13MulticonjuntoIlE7mostrarEv @43
    _ZNK13MulticonjuntoIlE9perteneceERKl @44
    _ZNK13MulticonjuntoIsE12cardinalidadEv @45
    _ZNK13MulticonjuntoIsE7esVacioEv @46
    _ZNK13MulticonjuntoIsE7mostrarEv @47
    _ZNK13MulticonjuntoIsE9perteneceERKs @48
